target datalayout = "e-m:e-p270:32:32-p271:32:32-p272:64:64-i64:64-i128:128-f80:128-n8:16:32:64-S128"
target triple = "x86_64-pc-linux-gnu"

%struct.job_record = type { i32, ptr, ptr, ptr, ptr, i16, i32, i32, i32, ptr, i32, ptr, ptr, i16, ptr, double, i64, ptr, ptr, ptr, ptr, ptr, ptr, i32, ptr, i32, i64, i64, i32, i32, ptr, i16, i64, i64, i8, i32, ptr, ptr, ptr, ptr, ptr, ptr, ptr, ptr, i32, ptr, ptr, i32, ptr, i32, ptr, i32, ptr, i32, ptr, ptr, ptr, ptr, ptr, ptr, i32, i16, i64, ptr, ptr, ptr, ptr, %struct.acct_policy_limit_set_t, i16, ptr, ptr, ptr, ptr, ptr, i32, ptr, ptr, ptr, ptr, ptr, i32, i32, ptr, ptr, ptr, i16, ptr, ptr, i8, ptr, ptr, i64, i64, i8, i32, i32, i8, i32, ptr, i32, i64, i32, ptr, ptr, ptr, i8, i16, i64, i32, ptr, ptr, ptr, ptr, ptr, i16, i32, ptr, ptr, ptr, ptr, i32, ptr, i32, i16, i64, ptr, i32, i32, ptr, i64, ptr, ptr, i64, i32, i32, i64, i32, i32, ptr, ptr, ptr, ptr, ptr, ptr, ptr, ptr, ptr, ptr, ptr, ptr, i32, ptr, i16, i16, i16, i16, ptr, i32, i32, i8, i64 }
%struct.acct_policy_limit_set_t = type { i16, i16, ptr }

@acct_db_conn = external global ptr, align 8
@slurmctld_tres_cnt = external global i32, align 4

; Function Attrs: nounwind uwtable
define dso_local void @job_post_resize_acctg(ptr noundef %0) #0 {
  %2 = alloca ptr, align 8
  store ptr %0, ptr %2, align 8
  %3 = load ptr, ptr %2, align 8
  call void @acct_policy_add_job_submit(ptr noundef %3, i1 noundef zeroext false)
  %4 = load ptr, ptr %2, align 8
  call void @job_set_alloc_tres(ptr noundef %4, i1 noundef zeroext false)
  %5 = load ptr, ptr %2, align 8
  %6 = getelementptr inbounds nuw %struct.job_record, ptr %5, i32 0, i32 144
  %7 = load ptr, ptr %6, align 8
  %8 = load ptr, ptr %2, align 8
  %9 = getelementptr inbounds nuw %struct.job_record, ptr %8, i32 0, i32 147
  %10 = load ptr, ptr %9, align 8
  %11 = load i32, ptr @slurmctld_tres_cnt, align 4
  %12 = sext i32 %11 to i64
  %13 = mul i64 %12, 8
  call void @llvm.memcpy.p0.p0.i64(ptr align 8 %7, ptr align 8 %10, i64 %13, i1 false)
  %14 = load ptr, ptr %2, align 8
  %15 = getelementptr inbounds nuw %struct.job_record, ptr %14, i32 0, i32 145
  call void @slurm_xfree(ptr noundef %15)
  %16 = load ptr, ptr %2, align 8
  %17 = getelementptr inbounds nuw %struct.job_record, ptr %16, i32 0, i32 148
  %18 = load ptr, ptr %17, align 8
  %19 = call ptr @xstrdup(ptr noundef %18)
  %20 = load ptr, ptr %2, align 8
  %21 = getelementptr inbounds nuw %struct.job_record, ptr %20, i32 0, i32 145
  store ptr %19, ptr %21, align 8
  %22 = load ptr, ptr %2, align 8
  %23 = getelementptr inbounds nuw %struct.job_record, ptr %22, i32 0, i32 146
  call void @slurm_xfree(ptr noundef %23)
  %24 = load ptr, ptr %2, align 8
  %25 = getelementptr inbounds nuw %struct.job_record, ptr %24, i32 0, i32 149
  %26 = load ptr, ptr %25, align 8
  %27 = call ptr @xstrdup(ptr noundef %26)
  %28 = load ptr, ptr %2, align 8
  %29 = getelementptr inbounds nuw %struct.job_record, ptr %28, i32 0, i32 146
  store ptr %27, ptr %29, align 8
  %30 = load ptr, ptr %2, align 8
  call void @acct_policy_job_begin(ptr noundef %30, i1 noundef zeroext false)
  %31 = load ptr, ptr %2, align 8
  call void @resv_replace_update(ptr noundef %31)
  %32 = load ptr, ptr %2, align 8
  call void @job_record_set_sluid(ptr noundef %32)
  %33 = load ptr, ptr @acct_db_conn, align 8
  %34 = load ptr, ptr %2, align 8
  %35 = call i32 @jobacct_storage_g_job_start(ptr noundef %33, ptr noundef %34)
  %36 = load ptr, ptr %2, align 8
  call void @job_state_unset_flag(ptr noundef %36, i32 noundef 8192)
  %37 = load ptr, ptr %2, align 8
  %38 = getelementptr inbounds nuw %struct.job_record, ptr %37, i32 0, i32 32
  %39 = load i64, ptr %38, align 8
  %40 = load ptr, ptr %2, align 8
  %41 = getelementptr inbounds nuw %struct.job_record, ptr %40, i32 0, i32 33
  store i64 %39, ptr %41, align 8
  ret void
}