; Function Attrs: nounwind uwtable
define dso_local void @job_post_resize_acctg(ptr noundef %0) local_unnamed_addr #0 {
  tail call void @acct_policy_add_job_submit(ptr noundef %0, i1 noundef zeroext false) #27
  tail call void @job_set_alloc_tres(ptr noundef %0, i1 noundef zeroext false)
  %2 = getelementptr inbounds nuw i8, ptr %0, i64 1048
  %3 = load ptr, ptr %2, align 8
  %4 = getelementptr inbounds nuw i8, ptr %0, i64 1072
  %5 = load ptr, ptr %4, align 8
  %6 = load i32, ptr @slurmctld_tres_cnt, align 4
  %7 = sext i32 %6 to i64
  %8 = shl nsw i64 %7, 3
  tail call void @llvm.memcpy.p0.p0.i64(ptr align 8 %3, ptr align 8 %5, i64 %8, i1 false)
  %9 = getelementptr inbounds nuw i8, ptr %0, i64 1056
  tail call void @slurm_xfree(ptr noundef nonnull %9) #27
  %10 = getelementptr inbounds nuw i8, ptr %0, i64 1080
  %11 = load ptr, ptr %10, align 8
  %12 = tail call ptr @xstrdup(ptr noundef %11) #27
  store ptr %12, ptr %9, align 8
  %13 = getelementptr inbounds nuw i8, ptr %0, i64 1064
  tail call void @slurm_xfree(ptr noundef nonnull %13) #27
  %14 = getelementptr inbounds nuw i8, ptr %0, i64 1088
  %15 = load ptr, ptr %14, align 8
  %16 = tail call ptr @xstrdup(ptr noundef %15) #27
  store ptr %16, ptr %13, align 8
  tail call void @acct_policy_job_begin(ptr noundef %0, i1 noundef zeroext false) #27
  tail call void @resv_replace_update(ptr noundef %0) #27
  tail call void @job_record_set_sluid(ptr noundef %0) #27
  %17 = load ptr, ptr @acct_db_conn, align 8
  %18 = tail call i32 @jobacct_storage_g_job_start(ptr noundef %17, ptr noundef %0) #27
  tail call void @job_state_unset_flag(ptr noundef %0, i32 noundef 8192) #27
  %19 = getelementptr inbounds nuw i8, ptr %0, i64 232
  %20 = load i64, ptr %19, align 8
  %21 = getelementptr inbounds nuw i8, ptr %0, i64 240
  store i64 %20, ptr %21, align 8
  ret void
}